; Function Attrs: nofree nounwind uwtable
define internal noundef i32 @php_stdiop_flush(ptr noundef readonly captures(none) %0) #9 {
  %2 = getelementptr inbounds nuw i8, ptr %0, i64 8
  %3 = load ptr, ptr %2, align 8, !tbaa !20
  %4 = load ptr, ptr %3, align 8, !tbaa !36
  %.not = icmp eq ptr %4, null
  br i1 %.not, label %7, label %5

5:                                                ; preds = %1
  %6 = tail call i32 @fflush(ptr noundef nonnull %4)
  br label %7

7:                                                ; preds = %1, %5
  %.0 = phi i32 [ %6, %5 ], [ 0, %1 ]
  ret i32 %.0
}